; Function Attrs: nounwind uwtable
define hidden ptr @_Py_asdl_type_param_seq_new(i64 noundef %0, ptr noundef %1) local_unnamed_addr #0 {
  %or.cond = icmp ugt i64 %0, 2305843009213693952
  br i1 %or.cond, label %3, label %5

3:                                                ; preds = %2
  %4 = tail call ptr @PyErr_NoMemory() #8
  br label %20

5:                                                ; preds = %2
  %.not.not = icmp eq i64 %0, 0
  %6 = shl i64 %0, 3
  %7 = add i64 %6, -8
  %8 = select i1 %.not.not, i64 0, i64 %7
  %9 = icmp ugt i64 %8, -25
  br i1 %9, label %10, label %12

10:                                               ; preds = %5
  %11 = tail call ptr @PyErr_NoMemory() #8
  br label %20

12:                                               ; preds = %5
  %13 = add nuw i64 %8, 24
  %14 = tail call ptr @_PyArena_Malloc(ptr noundef %1, i64 noundef %13) #8
  %.not20 = icmp eq ptr %14, null
  br i1 %.not20, label %15, label %17

15:                                               ; preds = %12
  %16 = tail call ptr @PyErr_NoMemory() #8
  br label %20

17:                                               ; preds = %12
  tail call void @llvm.memset.p0.i64(ptr noundef nonnull align 8 dereferenceable(1) %14, i8 0, i64 %13, i1 false)
  store i64 %0, ptr %14, align 8, !tbaa !14
  %18 = getelementptr inbounds nuw i8, ptr %14, i64 16
  %19 = getelementptr inbounds nuw i8, ptr %14, i64 8
  store ptr %18, ptr %19, align 8, !tbaa !17
  br label %20

20:                                               ; preds = %17, %15, %10, %3
  %.0 = phi ptr [ null, %3 ], [ null, %10 ], [ %14, %17 ], [ null, %15 ]
  ret ptr %.0
}